
/home/wzw/ysyx-workbench/nanos-lite/build/nanos-lite-riscv64-npc.elf:     file format elf64-littleriscv


Disassembly of section .text:

0000000080000000 <_start>:
    80000000:	00000413          	li	s0,0
    80000004:	02396117          	auipc	sp,0x2396
    80000008:	ffc10113          	addi	sp,sp,-4 # 82396000 <_end>
    8000000c:	535000ef          	jal	ra,80000d40 <_trm_init>

0000000080000010 <main>:
    80000010:	ff010113          	addi	sp,sp,-16
    80000014:	00002597          	auipc	a1,0x2
    80000018:	d5558593          	addi	a1,a1,-683 # 80001d69 <logo>
    8000001c:	00002517          	auipc	a0,0x2
    80000020:	83450513          	addi	a0,a0,-1996 # 80001850 <_etext+0x4>
    80000024:	00113423          	sd	ra,8(sp)
    80000028:	00813023          	sd	s0,0(sp)
    8000002c:	740010ef          	jal	ra,8000176c <printf>
    80000030:	00003417          	auipc	s0,0x3
    80000034:	41840413          	addi	s0,s0,1048 # 80003448 <__func__.0>
    80000038:	00040693          	mv	a3,s0
    8000003c:	00d00613          	li	a2,13
    80000040:	00002597          	auipc	a1,0x2
    80000044:	81858593          	addi	a1,a1,-2024 # 80001858 <_etext+0xc>
    80000048:	00002517          	auipc	a0,0x2
    8000004c:	84050513          	addi	a0,a0,-1984 # 80001888 <_etext+0x3c>
    80000050:	71c010ef          	jal	ra,8000176c <printf>
    80000054:	00002797          	auipc	a5,0x2
    80000058:	86c78793          	addi	a5,a5,-1940 # 800018c0 <_etext+0x74>
    8000005c:	00002717          	auipc	a4,0x2
    80000060:	87470713          	addi	a4,a4,-1932 # 800018d0 <_etext+0x84>
    80000064:	00e00613          	li	a2,14
    80000068:	00001597          	auipc	a1,0x1
    8000006c:	7f058593          	addi	a1,a1,2032 # 80001858 <_etext+0xc>
    80000070:	00040693          	mv	a3,s0
    80000074:	00002517          	auipc	a0,0x2
    80000078:	86c50513          	addi	a0,a0,-1940 # 800018e0 <_etext+0x94>
    8000007c:	6f0010ef          	jal	ra,8000176c <printf>
    80000080:	469000ef          	jal	ra,80000ce8 <init_mm>
    80000084:	4dc000ef          	jal	ra,80000560 <init_device>
    80000088:	049000ef          	jal	ra,800008d0 <init_ramdisk>
    8000008c:	2e4000ef          	jal	ra,80000370 <init_irq>
    80000090:	0d5000ef          	jal	ra,80000964 <init_fs>
    80000094:	6e8000ef          	jal	ra,8000077c <init_proc>
    80000098:	00040693          	mv	a3,s0
    8000009c:	01e00613          	li	a2,30
    800000a0:	00001597          	auipc	a1,0x1
    800000a4:	7b858593          	addi	a1,a1,1976 # 80001858 <_etext+0xc>
    800000a8:	00002517          	auipc	a0,0x2
    800000ac:	86850513          	addi	a0,a0,-1944 # 80001910 <_etext+0xc4>
    800000b0:	6bc010ef          	jal	ra,8000176c <printf>
    800000b4:	735000ef          	jal	ra,80000fe8 <yield>
    800000b8:	00040693          	mv	a3,s0
    800000bc:	02400613          	li	a2,36
    800000c0:	00001597          	auipc	a1,0x1
    800000c4:	79858593          	addi	a1,a1,1944 # 80001858 <_etext+0xc>
    800000c8:	00002517          	auipc	a0,0x2
    800000cc:	87850513          	addi	a0,a0,-1928 # 80001940 <_etext+0xf4>
    800000d0:	69c010ef          	jal	ra,8000176c <printf>
    800000d4:	00100513          	li	a0,1
    800000d8:	45d000ef          	jal	ra,80000d34 <halt>

00000000800000dc <do_syscall>:
    800000dc:	08853703          	ld	a4,136(a0)
    800000e0:	fd010113          	addi	sp,sp,-48
    800000e4:	00913c23          	sd	s1,24(sp)
    800000e8:	02113423          	sd	ra,40(sp)
    800000ec:	02813023          	sd	s0,32(sp)
    800000f0:	01213823          	sd	s2,16(sp)
    800000f4:	01300793          	li	a5,19
    800000f8:	05053483          	ld	s1,80(a0)
    800000fc:	05853583          	ld	a1,88(a0)
    80000100:	06053603          	ld	a2,96(a0)
    80000104:	18e7e663          	bltu	a5,a4,80000290 <do_syscall+0x1b4>
    80000108:	00002697          	auipc	a3,0x2
    8000010c:	91c68693          	addi	a3,a3,-1764 # 80001a24 <_etext+0x1d8>
    80000110:	00271793          	slli	a5,a4,0x2
    80000114:	00d787b3          	add	a5,a5,a3
    80000118:	0007a783          	lw	a5,0(a5)
    8000011c:	00050413          	mv	s0,a0
    80000120:	00d787b3          	add	a5,a5,a3
    80000124:	00078067          	jr	a5
    80000128:	00810593          	addi	a1,sp,8
    8000012c:	00600513          	li	a0,6
    80000130:	515000ef          	jal	ra,80000e44 <ioe_read>
    80000134:	00813783          	ld	a5,8(sp)
    80000138:	000f4937          	lui	s2,0xf4
    8000013c:	24090913          	addi	s2,s2,576 # f4240 <_entry_offset+0xf4240>
    80000140:	0327d7b3          	divu	a5,a5,s2
    80000144:	00810593          	addi	a1,sp,8
    80000148:	00600513          	li	a0,6
    8000014c:	00f4b023          	sd	a5,0(s1)
    80000150:	4f5000ef          	jal	ra,80000e44 <ioe_read>
    80000154:	00813783          	ld	a5,8(sp)
    80000158:	0327f7b3          	remu	a5,a5,s2
    8000015c:	00f4b423          	sd	a5,8(s1)
    80000160:	02813083          	ld	ra,40(sp)
    80000164:	04043823          	sd	zero,80(s0)
    80000168:	02013403          	ld	s0,32(sp)
    8000016c:	01813483          	ld	s1,24(sp)
    80000170:	01013903          	ld	s2,16(sp)
    80000174:	03010113          	addi	sp,sp,48
    80000178:	00008067          	ret
    8000017c:	66d000ef          	jal	ra,80000fe8 <yield>
    80000180:	02813083          	ld	ra,40(sp)
    80000184:	04043823          	sd	zero,80(s0)
    80000188:	02013403          	ld	s0,32(sp)
    8000018c:	01813483          	ld	s1,24(sp)
    80000190:	01013903          	ld	s2,16(sp)
    80000194:	03010113          	addi	sp,sp,48
    80000198:	00008067          	ret
    8000019c:	00048513          	mv	a0,s1
    800001a0:	0006061b          	sext.w	a2,a2
    800001a4:	0005859b          	sext.w	a1,a1
    800001a8:	7fc000ef          	jal	ra,800009a4 <fs_open>
    800001ac:	02813083          	ld	ra,40(sp)
    800001b0:	04a43823          	sd	a0,80(s0)
    800001b4:	02013403          	ld	s0,32(sp)
    800001b8:	01813483          	ld	s1,24(sp)
    800001bc:	01013903          	ld	s2,16(sp)
    800001c0:	03010113          	addi	sp,sp,48
    800001c4:	00008067          	ret
    800001c8:	0004851b          	sext.w	a0,s1
    800001cc:	0a9000ef          	jal	ra,80000a74 <fs_read>
    800001d0:	02813083          	ld	ra,40(sp)
    800001d4:	04a43823          	sd	a0,80(s0)
    800001d8:	02013403          	ld	s0,32(sp)
    800001dc:	01813483          	ld	s1,24(sp)
    800001e0:	01013903          	ld	s2,16(sp)
    800001e4:	03010113          	addi	sp,sp,48
    800001e8:	00008067          	ret
    800001ec:	0004851b          	sext.w	a0,s1
    800001f0:	135000ef          	jal	ra,80000b24 <fs_write>
    800001f4:	02813083          	ld	ra,40(sp)
    800001f8:	04a43823          	sd	a0,80(s0)
    800001fc:	02013403          	ld	s0,32(sp)
    80000200:	01813483          	ld	s1,24(sp)
    80000204:	01013903          	ld	s2,16(sp)
    80000208:	03010113          	addi	sp,sp,48
    8000020c:	00008067          	ret
    80000210:	0004851b          	sext.w	a0,s1
    80000214:	2cd000ef          	jal	ra,80000ce0 <fs_close>
    80000218:	02813083          	ld	ra,40(sp)
    8000021c:	04a43823          	sd	a0,80(s0)
    80000220:	02013403          	ld	s0,32(sp)
    80000224:	01813483          	ld	s1,24(sp)
    80000228:	01013903          	ld	s2,16(sp)
    8000022c:	03010113          	addi	sp,sp,48
    80000230:	00008067          	ret
    80000234:	00048593          	mv	a1,s1
    80000238:	00001517          	auipc	a0,0x1
    8000023c:	75050513          	addi	a0,a0,1872 # 80001988 <_etext+0x13c>
    80000240:	52c010ef          	jal	ra,8000176c <printf>
    80000244:	02013403          	ld	s0,32(sp)
    80000248:	02813083          	ld	ra,40(sp)
    8000024c:	01013903          	ld	s2,16(sp)
    80000250:	00048593          	mv	a1,s1
    80000254:	01813483          	ld	s1,24(sp)
    80000258:	0217d517          	auipc	a0,0x217d
    8000025c:	da850513          	addi	a0,a0,-600 # 8217d000 <pcb_boot.1>
    80000260:	03010113          	addi	sp,sp,48
    80000264:	3300006f          	j	80000594 <naive_uload>
    80000268:	0004851b          	sext.w	a0,s1
    8000026c:	0006061b          	sext.w	a2,a2
    80000270:	165000ef          	jal	ra,80000bd4 <fs_lseek>
    80000274:	02813083          	ld	ra,40(sp)
    80000278:	04a43823          	sd	a0,80(s0)
    8000027c:	02013403          	ld	s0,32(sp)
    80000280:	01813483          	ld	s1,24(sp)
    80000284:	01013903          	ld	s2,16(sp)
    80000288:	03010113          	addi	sp,sp,48
    8000028c:	00008067          	ret
    80000290:	00371693          	slli	a3,a4,0x3
    80000294:	00002797          	auipc	a5,0x2
    80000298:	93478793          	addi	a5,a5,-1740 # 80001bc8 <img>
    8000029c:	00d787b3          	add	a5,a5,a3
    800002a0:	0007b783          	ld	a5,0(a5)
    800002a4:	00002697          	auipc	a3,0x2
    800002a8:	91468693          	addi	a3,a3,-1772 # 80001bb8 <__func__.0>
    800002ac:	08300613          	li	a2,131
    800002b0:	00001597          	auipc	a1,0x1
    800002b4:	6e058593          	addi	a1,a1,1760 # 80001990 <_etext+0x144>
    800002b8:	00001517          	auipc	a0,0x1
    800002bc:	71050513          	addi	a0,a0,1808 # 800019c8 <_etext+0x17c>
    800002c0:	4ac010ef          	jal	ra,8000176c <printf>
    800002c4:	00100513          	li	a0,1
    800002c8:	26d000ef          	jal	ra,80000d34 <halt>
    800002cc:	0004851b          	sext.w	a0,s1
    800002d0:	265000ef          	jal	ra,80000d34 <halt>

00000000800002d4 <do_event>:
    800002d4:	00052703          	lw	a4,0(a0)
    800002d8:	ff010113          	addi	sp,sp,-16
    800002dc:	00813023          	sd	s0,0(sp)
    800002e0:	00113423          	sd	ra,8(sp)
    800002e4:	00100793          	li	a5,1
    800002e8:	00058413          	mv	s0,a1
    800002ec:	02f70463          	beq	a4,a5,80000314 <do_event+0x40>
    800002f0:	00200793          	li	a5,2
    800002f4:	04f71a63          	bne	a4,a5,80000348 <do_event+0x74>
    800002f8:	00058513          	mv	a0,a1
    800002fc:	de1ff0ef          	jal	ra,800000dc <do_syscall>
    80000300:	00813083          	ld	ra,8(sp)
    80000304:	00040513          	mv	a0,s0
    80000308:	00013403          	ld	s0,0(sp)
    8000030c:	01010113          	addi	sp,sp,16
    80000310:	00008067          	ret
    80000314:	00002697          	auipc	a3,0x2
    80000318:	a3c68693          	addi	a3,a3,-1476 # 80001d50 <__func__.0>
    8000031c:	00700613          	li	a2,7
    80000320:	00002597          	auipc	a1,0x2
    80000324:	94858593          	addi	a1,a1,-1720 # 80001c68 <img+0xa0>
    80000328:	00002517          	auipc	a0,0x2
    8000032c:	97050513          	addi	a0,a0,-1680 # 80001c98 <img+0xd0>
    80000330:	43c010ef          	jal	ra,8000176c <printf>
    80000334:	00813083          	ld	ra,8(sp)
    80000338:	00040513          	mv	a0,s0
    8000033c:	00013403          	ld	s0,0(sp)
    80000340:	01010113          	addi	sp,sp,16
    80000344:	00008067          	ret
    80000348:	00002697          	auipc	a3,0x2
    8000034c:	a0868693          	addi	a3,a3,-1528 # 80001d50 <__func__.0>
    80000350:	00900613          	li	a2,9
    80000354:	00002597          	auipc	a1,0x2
    80000358:	91458593          	addi	a1,a1,-1772 # 80001c68 <img+0xa0>
    8000035c:	00002517          	auipc	a0,0x2
    80000360:	96450513          	addi	a0,a0,-1692 # 80001cc0 <img+0xf8>
    80000364:	408010ef          	jal	ra,8000176c <printf>
    80000368:	00100513          	li	a0,1
    8000036c:	1c9000ef          	jal	ra,80000d34 <halt>

0000000080000370 <init_irq>:
    80000370:	ff010113          	addi	sp,sp,-16
    80000374:	00002697          	auipc	a3,0x2
    80000378:	9ec68693          	addi	a3,a3,-1556 # 80001d60 <__func__.1>
    8000037c:	00f00613          	li	a2,15
    80000380:	00002597          	auipc	a1,0x2
    80000384:	8e858593          	addi	a1,a1,-1816 # 80001c68 <img+0xa0>
    80000388:	00002517          	auipc	a0,0x2
    8000038c:	98050513          	addi	a0,a0,-1664 # 80001d08 <img+0x140>
    80000390:	00113423          	sd	ra,8(sp)
    80000394:	3d8010ef          	jal	ra,8000176c <printf>
    80000398:	00813083          	ld	ra,8(sp)
    8000039c:	00000517          	auipc	a0,0x0
    800003a0:	f3850513          	addi	a0,a0,-200 # 800002d4 <do_event>
    800003a4:	01010113          	addi	sp,sp,16
    800003a8:	4210006f          	j	80000fc8 <cte_init>

00000000800003ac <serial_write>:
    800003ac:	fe010113          	addi	sp,sp,-32
    800003b0:	01213023          	sd	s2,0(sp)
    800003b4:	00113c23          	sd	ra,24(sp)
    800003b8:	00813823          	sd	s0,16(sp)
    800003bc:	00913423          	sd	s1,8(sp)
    800003c0:	00060913          	mv	s2,a2
    800003c4:	00060e63          	beqz	a2,800003e0 <serial_write+0x34>
    800003c8:	00050413          	mv	s0,a0
    800003cc:	00c504b3          	add	s1,a0,a2
    800003d0:	00044503          	lbu	a0,0(s0)
    800003d4:	00140413          	addi	s0,s0,1
    800003d8:	14d000ef          	jal	ra,80000d24 <putch>
    800003dc:	fe941ae3          	bne	s0,s1,800003d0 <serial_write+0x24>
    800003e0:	01813083          	ld	ra,24(sp)
    800003e4:	01013403          	ld	s0,16(sp)
    800003e8:	00813483          	ld	s1,8(sp)
    800003ec:	00090513          	mv	a0,s2
    800003f0:	00013903          	ld	s2,0(sp)
    800003f4:	02010113          	addi	sp,sp,32
    800003f8:	00008067          	ret

00000000800003fc <events_read>:
    800003fc:	eb010113          	addi	sp,sp,-336
    80000400:	12913c23          	sd	s1,312(sp)
    80000404:	00010593          	mv	a1,sp
    80000408:	00050493          	mv	s1,a0
    8000040c:	00800513          	li	a0,8
    80000410:	13213823          	sd	s2,304(sp)
    80000414:	14113423          	sd	ra,328(sp)
    80000418:	00060913          	mv	s2,a2
    8000041c:	14813023          	sd	s0,320(sp)
    80000420:	225000ef          	jal	ra,80000e44 <ioe_read>
    80000424:	00014703          	lbu	a4,0(sp)
    80000428:	00412783          	lw	a5,4(sp)
    8000042c:	00002617          	auipc	a2,0x2
    80000430:	ec460613          	addi	a2,a2,-316 # 800022f0 <logo+0x587>
    80000434:	00070663          	beqz	a4,80000440 <events_read+0x44>
    80000438:	00002617          	auipc	a2,0x2
    8000043c:	eb060613          	addi	a2,a2,-336 # 800022e8 <logo+0x57f>
    80000440:	00379793          	slli	a5,a5,0x3
    80000444:	0217a417          	auipc	s0,0x217a
    80000448:	42c40413          	addi	s0,s0,1068 # 8217a870 <keyname>
    8000044c:	00f40433          	add	s0,s0,a5
    80000450:	00043683          	ld	a3,0(s0)
    80000454:	00002597          	auipc	a1,0x2
    80000458:	ea458593          	addi	a1,a1,-348 # 800022f8 <logo+0x58f>
    8000045c:	00010513          	mv	a0,sp
    80000460:	3b0010ef          	jal	ra,80001810 <sprintf>
    80000464:	00090613          	mv	a2,s2
    80000468:	00010593          	mv	a1,sp
    8000046c:	00048513          	mv	a0,s1
    80000470:	721000ef          	jal	ra,80001390 <memcpy>
    80000474:	00043503          	ld	a0,0(s0)
    80000478:	00002597          	auipc	a1,0x2
    8000047c:	e8858593          	addi	a1,a1,-376 # 80002300 <logo+0x597>
    80000480:	61d000ef          	jal	ra,8000129c <strcmp>
    80000484:	14813083          	ld	ra,328(sp)
    80000488:	14013403          	ld	s0,320(sp)
    8000048c:	13813483          	ld	s1,312(sp)
    80000490:	13013903          	ld	s2,304(sp)
    80000494:	00a03533          	snez	a0,a0
    80000498:	15010113          	addi	sp,sp,336
    8000049c:	00008067          	ret

00000000800004a0 <dispinfo_read>:
    800004a0:	fd010113          	addi	sp,sp,-48
    800004a4:	02813023          	sd	s0,32(sp)
    800004a8:	00010593          	mv	a1,sp
    800004ac:	00050413          	mv	s0,a0
    800004b0:	00900513          	li	a0,9
    800004b4:	02113423          	sd	ra,40(sp)
    800004b8:	00913c23          	sd	s1,24(sp)
    800004bc:	189000ef          	jal	ra,80000e44 <ioe_read>
    800004c0:	00010593          	mv	a1,sp
    800004c4:	00900513          	li	a0,9
    800004c8:	00412483          	lw	s1,4(sp)
    800004cc:	179000ef          	jal	ra,80000e44 <ioe_read>
    800004d0:	00812683          	lw	a3,8(sp)
    800004d4:	00048613          	mv	a2,s1
    800004d8:	00040513          	mv	a0,s0
    800004dc:	00002597          	auipc	a1,0x2
    800004e0:	e2c58593          	addi	a1,a1,-468 # 80002308 <logo+0x59f>
    800004e4:	32c010ef          	jal	ra,80001810 <sprintf>
    800004e8:	02813083          	ld	ra,40(sp)
    800004ec:	02013403          	ld	s0,32(sp)
    800004f0:	01813483          	ld	s1,24(sp)
    800004f4:	00000513          	li	a0,0
    800004f8:	03010113          	addi	sp,sp,48
    800004fc:	00008067          	ret

0000000080000500 <fb_write>:
    80000500:	0025d793          	srli	a5,a1,0x2
    80000504:	19000693          	li	a3,400
    80000508:	02d7f733          	remu	a4,a5,a3
    8000050c:	fd010113          	addi	sp,sp,-48
    80000510:	00050893          	mv	a7,a0
    80000514:	00100813          	li	a6,1
    80000518:	00265613          	srli	a2,a2,0x2
    8000051c:	00b00513          	li	a0,11
    80000520:	00010593          	mv	a1,sp
    80000524:	02113423          	sd	ra,40(sp)
    80000528:	01113423          	sd	a7,8(sp)
    8000052c:	00c12823          	sw	a2,16(sp)
    80000530:	01012a23          	sw	a6,20(sp)
    80000534:	01010c23          	sb	a6,24(sp)
    80000538:	40e787b3          	sub	a5,a5,a4
    8000053c:	02d7d7b3          	divu	a5,a5,a3
    80000540:	00e12023          	sw	a4,0(sp)
    80000544:	0017879b          	addiw	a5,a5,1
    80000548:	00f12223          	sw	a5,4(sp)
    8000054c:	115000ef          	jal	ra,80000e60 <ioe_write>
    80000550:	02813083          	ld	ra,40(sp)
    80000554:	00000513          	li	a0,0
    80000558:	03010113          	addi	sp,sp,48
    8000055c:	00008067          	ret

0000000080000560 <init_device>:
    80000560:	ff010113          	addi	sp,sp,-16
    80000564:	00002697          	auipc	a3,0x2
    80000568:	0dc68693          	addi	a3,a3,220 # 80002640 <__func__.0>
    8000056c:	03800613          	li	a2,56
    80000570:	00002597          	auipc	a1,0x2
    80000574:	db058593          	addi	a1,a1,-592 # 80002320 <logo+0x5b7>
    80000578:	00002517          	auipc	a0,0x2
    8000057c:	de050513          	addi	a0,a0,-544 # 80002358 <logo+0x5ef>
    80000580:	00113423          	sd	ra,8(sp)
    80000584:	1e8010ef          	jal	ra,8000176c <printf>
    80000588:	00813083          	ld	ra,8(sp)
    8000058c:	01010113          	addi	sp,sp,16
    80000590:	05d0006f          	j	80000dec <ioe_init>

0000000080000594 <naive_uload>:
    80000594:	f9010113          	addi	sp,sp,-112
    80000598:	00000613          	li	a2,0
    8000059c:	00058513          	mv	a0,a1
    800005a0:	00000593          	li	a1,0
    800005a4:	06113423          	sd	ra,104(sp)
    800005a8:	05213823          	sd	s2,80(sp)
    800005ac:	06813023          	sd	s0,96(sp)
    800005b0:	04913c23          	sd	s1,88(sp)
    800005b4:	05313423          	sd	s3,72(sp)
    800005b8:	05413023          	sd	s4,64(sp)
    800005bc:	3e8000ef          	jal	ra,800009a4 <fs_open>
    800005c0:	00050593          	mv	a1,a0
    800005c4:	00050913          	mv	s2,a0
    800005c8:	00002517          	auipc	a0,0x2
    800005cc:	08850513          	addi	a0,a0,136 # 80002650 <__func__.0+0x10>
    800005d0:	19c010ef          	jal	ra,8000176c <printf>
    800005d4:	04000613          	li	a2,64
    800005d8:	00010593          	mv	a1,sp
    800005dc:	00090513          	mv	a0,s2
    800005e0:	494000ef          	jal	ra,80000a74 <fs_read>
    800005e4:	00016703          	lwu	a4,0(sp)
    800005e8:	464c47b7          	lui	a5,0x464c4
    800005ec:	57f78793          	addi	a5,a5,1407 # 464c457f <_entry_offset+0x464c457f>
    800005f0:	14f71263          	bne	a4,a5,80000734 <naive_uload+0x1a0>
    800005f4:	01215703          	lhu	a4,18(sp)
    800005f8:	0f300793          	li	a5,243
    800005fc:	16f71463          	bne	a4,a5,80000764 <naive_uload+0x1d0>
    80000600:	03815783          	lhu	a5,56(sp)
    80000604:	00379513          	slli	a0,a5,0x3
    80000608:	40f50533          	sub	a0,a0,a5
    8000060c:	00351513          	slli	a0,a0,0x3
    80000610:	5a5000ef          	jal	ra,800013b4 <malloc>
    80000614:	02013583          	ld	a1,32(sp)
    80000618:	00050413          	mv	s0,a0
    8000061c:	00000613          	li	a2,0
    80000620:	00090513          	mv	a0,s2
    80000624:	5b0000ef          	jal	ra,80000bd4 <fs_lseek>
    80000628:	03815783          	lhu	a5,56(sp)
    8000062c:	00040593          	mv	a1,s0
    80000630:	00090513          	mv	a0,s2
    80000634:	00379613          	slli	a2,a5,0x3
    80000638:	40f60633          	sub	a2,a2,a5
    8000063c:	00361613          	slli	a2,a2,0x3
    80000640:	434000ef          	jal	ra,80000a74 <fs_read>
    80000644:	03815783          	lhu	a5,56(sp)
    80000648:	08078c63          	beqz	a5,800006e0 <naive_uload+0x14c>
    8000064c:	00000493          	li	s1,0
    80000650:	00002a17          	auipc	s4,0x2
    80000654:	120a0a13          	addi	s4,s4,288 # 80002770 <__func__.0+0x130>
    80000658:	00100993          	li	s3,1
    8000065c:	0140006f          	j	80000670 <naive_uload+0xdc>
    80000660:	03815783          	lhu	a5,56(sp)
    80000664:	0014849b          	addiw	s1,s1,1
    80000668:	03840413          	addi	s0,s0,56
    8000066c:	06f4da63          	bge	s1,a5,800006e0 <naive_uload+0x14c>
    80000670:	02043783          	ld	a5,32(s0)
    80000674:	02843703          	ld	a4,40(s0)
    80000678:	01043683          	ld	a3,16(s0)
    8000067c:	00843603          	ld	a2,8(s0)
    80000680:	00042583          	lw	a1,0(s0)
    80000684:	000a0513          	mv	a0,s4
    80000688:	0e4010ef          	jal	ra,8000176c <printf>
    8000068c:	00042783          	lw	a5,0(s0)
    80000690:	fd3798e3          	bne	a5,s3,80000660 <naive_uload+0xcc>
    80000694:	00843583          	ld	a1,8(s0)
    80000698:	00000613          	li	a2,0
    8000069c:	00090513          	mv	a0,s2
    800006a0:	534000ef          	jal	ra,80000bd4 <fs_lseek>
    800006a4:	02043603          	ld	a2,32(s0)
    800006a8:	01043583          	ld	a1,16(s0)
    800006ac:	00090513          	mv	a0,s2
    800006b0:	0014849b          	addiw	s1,s1,1
    800006b4:	3c0000ef          	jal	ra,80000a74 <fs_read>
    800006b8:	02043783          	ld	a5,32(s0)
    800006bc:	02843603          	ld	a2,40(s0)
    800006c0:	01043503          	ld	a0,16(s0)
    800006c4:	00000593          	li	a1,0
    800006c8:	40f60633          	sub	a2,a2,a5
    800006cc:	00a78533          	add	a0,a5,a0
    800006d0:	4a1000ef          	jal	ra,80001370 <memset>
    800006d4:	03815783          	lhu	a5,56(sp)
    800006d8:	03840413          	addi	s0,s0,56
    800006dc:	f8f4cae3          	blt	s1,a5,80000670 <naive_uload+0xdc>
    800006e0:	00090513          	mv	a0,s2
    800006e4:	5fc000ef          	jal	ra,80000ce0 <fs_close>
    800006e8:	01813403          	ld	s0,24(sp)
    800006ec:	00002697          	auipc	a3,0x2
    800006f0:	0f468693          	addi	a3,a3,244 # 800027e0 <__func__.1>
    800006f4:	05800613          	li	a2,88
    800006f8:	00040713          	mv	a4,s0
    800006fc:	00002597          	auipc	a1,0x2
    80000700:	fd458593          	addi	a1,a1,-44 # 800026d0 <__func__.0+0x90>
    80000704:	00002517          	auipc	a0,0x2
    80000708:	0ac50513          	addi	a0,a0,172 # 800027b0 <__func__.0+0x170>
    8000070c:	060010ef          	jal	ra,8000176c <printf>
    80000710:	00040793          	mv	a5,s0
    80000714:	06013403          	ld	s0,96(sp)
    80000718:	06813083          	ld	ra,104(sp)
    8000071c:	05813483          	ld	s1,88(sp)
    80000720:	05013903          	ld	s2,80(sp)
    80000724:	04813983          	ld	s3,72(sp)
    80000728:	04013a03          	ld	s4,64(sp)
    8000072c:	07010113          	addi	sp,sp,112
    80000730:	00078067          	jr	a5
    80000734:	00002717          	auipc	a4,0x2
    80000738:	f2470713          	addi	a4,a4,-220 # 80002658 <__func__.0+0x18>
    8000073c:	00003697          	auipc	a3,0x3
    80000740:	d1468693          	addi	a3,a3,-748 # 80003450 <__func__.0>
    80000744:	03e00613          	li	a2,62
    80000748:	00002597          	auipc	a1,0x2
    8000074c:	f8858593          	addi	a1,a1,-120 # 800026d0 <__func__.0+0x90>
    80000750:	00002517          	auipc	a0,0x2
    80000754:	fb850513          	addi	a0,a0,-72 # 80002708 <__func__.0+0xc8>
    80000758:	014010ef          	jal	ra,8000176c <printf>
    8000075c:	00100513          	li	a0,1
    80000760:	5d4000ef          	jal	ra,80000d34 <halt>
    80000764:	00002717          	auipc	a4,0x2
    80000768:	fec70713          	addi	a4,a4,-20 # 80002750 <__func__.0+0x110>
    8000076c:	00003697          	auipc	a3,0x3
    80000770:	ce468693          	addi	a3,a3,-796 # 80003450 <__func__.0>
    80000774:	03f00613          	li	a2,63
    80000778:	fd1ff06f          	j	80000748 <naive_uload+0x1b4>

000000008000077c <init_proc>:
    8000077c:	ff010113          	addi	sp,sp,-16
    80000780:	00813023          	sd	s0,0(sp)
    80000784:	00002597          	auipc	a1,0x2
    80000788:	06c58593          	addi	a1,a1,108 # 800027f0 <__func__.1+0x10>
    8000078c:	0238d417          	auipc	s0,0x238d
    80000790:	adc40413          	addi	s0,s0,-1316 # 8238d268 <current>
    80000794:	02185797          	auipc	a5,0x2185
    80000798:	86c78793          	addi	a5,a5,-1940 # 82185000 <pcb_boot>
    8000079c:	00002697          	auipc	a3,0x2
    800007a0:	12468693          	addi	a3,a3,292 # 800028c0 <__func__.0>
    800007a4:	01b00613          	li	a2,27
    800007a8:	00002517          	auipc	a0,0x2
    800007ac:	0d050513          	addi	a0,a0,208 # 80002878 <__func__.1+0x98>
    800007b0:	00113423          	sd	ra,8(sp)
    800007b4:	00f43023          	sd	a5,0(s0)
    800007b8:	7b5000ef          	jal	ra,8000176c <printf>
    800007bc:	00043503          	ld	a0,0(s0)
    800007c0:	00013403          	ld	s0,0(sp)
    800007c4:	00813083          	ld	ra,8(sp)
    800007c8:	00002597          	auipc	a1,0x2
    800007cc:	0e858593          	addi	a1,a1,232 # 800028b0 <__func__.1+0xd0>
    800007d0:	01010113          	addi	sp,sp,16
    800007d4:	dc1ff06f          	j	80000594 <naive_uload>

00000000800007d8 <ramdisk_read>:
    800007d8:	ff010113          	addi	sp,sp,-16
    800007dc:	00003717          	auipc	a4,0x3
    800007e0:	c8d70713          	addi	a4,a4,-883 # 80003469 <ramdisk_start>
    800007e4:	0217a797          	auipc	a5,0x217a
    800007e8:	08578793          	addi	a5,a5,133 # 8217a869 <_data>
    800007ec:	00113423          	sd	ra,8(sp)
    800007f0:	00813023          	sd	s0,0(sp)
    800007f4:	00c586b3          	add	a3,a1,a2
    800007f8:	40e787b3          	sub	a5,a5,a4
    800007fc:	02d7e263          	bltu	a5,a3,80000820 <ramdisk_read+0x48>
    80000800:	00b705b3          	add	a1,a4,a1
    80000804:	00060413          	mv	s0,a2
    80000808:	389000ef          	jal	ra,80001390 <memcpy>
    8000080c:	00813083          	ld	ra,8(sp)
    80000810:	00040513          	mv	a0,s0
    80000814:	00013403          	ld	s0,0(sp)
    80000818:	01010113          	addi	sp,sp,16
    8000081c:	00008067          	ret
    80000820:	00002717          	auipc	a4,0x2
    80000824:	0b070713          	addi	a4,a4,176 # 800028d0 <__func__.0+0x10>
    80000828:	00002697          	auipc	a3,0x2
    8000082c:	17068693          	addi	a3,a3,368 # 80002998 <__func__.2>
    80000830:	00e00613          	li	a2,14
    80000834:	00002597          	auipc	a1,0x2
    80000838:	0bc58593          	addi	a1,a1,188 # 800028f0 <__func__.0+0x30>
    8000083c:	00002517          	auipc	a0,0x2
    80000840:	ecc50513          	addi	a0,a0,-308 # 80002708 <__func__.0+0xc8>
    80000844:	729000ef          	jal	ra,8000176c <printf>
    80000848:	00100513          	li	a0,1
    8000084c:	4e8000ef          	jal	ra,80000d34 <halt>

0000000080000850 <ramdisk_write>:
    80000850:	ff010113          	addi	sp,sp,-16
    80000854:	00003697          	auipc	a3,0x3
    80000858:	c1568693          	addi	a3,a3,-1003 # 80003469 <ramdisk_start>
    8000085c:	0217a717          	auipc	a4,0x217a
    80000860:	00d70713          	addi	a4,a4,13 # 8217a869 <_data>
    80000864:	00113423          	sd	ra,8(sp)
    80000868:	00813023          	sd	s0,0(sp)
    8000086c:	00c58833          	add	a6,a1,a2
    80000870:	40d70733          	sub	a4,a4,a3
    80000874:	03076663          	bltu	a4,a6,800008a0 <ramdisk_write+0x50>
    80000878:	00058793          	mv	a5,a1
    8000087c:	00050593          	mv	a1,a0
    80000880:	00f68533          	add	a0,a3,a5
    80000884:	00060413          	mv	s0,a2
    80000888:	309000ef          	jal	ra,80001390 <memcpy>
    8000088c:	00813083          	ld	ra,8(sp)
    80000890:	00040513          	mv	a0,s0
    80000894:	00013403          	ld	s0,0(sp)
    80000898:	01010113          	addi	sp,sp,16
    8000089c:	00008067          	ret
    800008a0:	00002717          	auipc	a4,0x2
    800008a4:	03070713          	addi	a4,a4,48 # 800028d0 <__func__.0+0x10>
    800008a8:	00002697          	auipc	a3,0x2
    800008ac:	0e068693          	addi	a3,a3,224 # 80002988 <__func__.1>
    800008b0:	01500613          	li	a2,21
    800008b4:	00002597          	auipc	a1,0x2
    800008b8:	03c58593          	addi	a1,a1,60 # 800028f0 <__func__.0+0x30>
    800008bc:	00002517          	auipc	a0,0x2
    800008c0:	e4c50513          	addi	a0,a0,-436 # 80002708 <__func__.0+0xc8>
    800008c4:	6a9000ef          	jal	ra,8000176c <printf>
    800008c8:	00100513          	li	a0,1
    800008cc:	468000ef          	jal	ra,80000d34 <halt>

00000000800008d0 <init_ramdisk>:
    800008d0:	0217a797          	auipc	a5,0x217a
    800008d4:	f9978793          	addi	a5,a5,-103 # 8217a869 <_data>
    800008d8:	00003717          	auipc	a4,0x3
    800008dc:	b9170713          	addi	a4,a4,-1135 # 80003469 <ramdisk_start>
    800008e0:	40e78833          	sub	a6,a5,a4
    800008e4:	00002697          	auipc	a3,0x2
    800008e8:	09468693          	addi	a3,a3,148 # 80002978 <__func__.0>
    800008ec:	01c00613          	li	a2,28
    800008f0:	00002597          	auipc	a1,0x2
    800008f4:	00058593          	mv	a1,a1
    800008f8:	00002517          	auipc	a0,0x2
    800008fc:	03050513          	addi	a0,a0,48 # 80002928 <__func__.0+0x68>
    80000900:	66d0006f          	j	8000176c <printf>

0000000080000904 <invalid_read>:
    80000904:	ff010113          	addi	sp,sp,-16
    80000908:	00003697          	auipc	a3,0x3
    8000090c:	92868693          	addi	a3,a3,-1752 # 80003230 <__func__.3>
    80000910:	01300613          	li	a2,19
    80000914:	00002597          	auipc	a1,0x2
    80000918:	09458593          	addi	a1,a1,148 # 800029a8 <__func__.2+0x10>
    8000091c:	00002517          	auipc	a0,0x2
    80000920:	0bc50513          	addi	a0,a0,188 # 800029d8 <__func__.2+0x40>
    80000924:	00113423          	sd	ra,8(sp)
    80000928:	645000ef          	jal	ra,8000176c <printf>
    8000092c:	00100513          	li	a0,1
    80000930:	404000ef          	jal	ra,80000d34 <halt>

0000000080000934 <invalid_write>:
    80000934:	ff010113          	addi	sp,sp,-16
    80000938:	00003697          	auipc	a3,0x3
    8000093c:	8e868693          	addi	a3,a3,-1816 # 80003220 <__func__.2>
    80000940:	01800613          	li	a2,24
    80000944:	00002597          	auipc	a1,0x2
    80000948:	06458593          	addi	a1,a1,100 # 800029a8 <__func__.2+0x10>
    8000094c:	00002517          	auipc	a0,0x2
    80000950:	08c50513          	addi	a0,a0,140 # 800029d8 <__func__.2+0x40>
    80000954:	00113423          	sd	ra,8(sp)
    80000958:	615000ef          	jal	ra,8000176c <printf>
    8000095c:	00100513          	li	a0,1
    80000960:	3d4000ef          	jal	ra,80000d34 <halt>

0000000080000964 <init_fs>:
    80000964:	000757b7          	lui	a5,0x75
    80000968:	30078793          	addi	a5,a5,768 # 75300 <_entry_offset+0x75300>
    8000096c:	0217a717          	auipc	a4,0x217a
    80000970:	7af73623          	sd	a5,1964(a4) # 8217b118 <file_table+0xa8>
    80000974:	0218c717          	auipc	a4,0x218c
    80000978:	68c70713          	addi	a4,a4,1676 # 8218d000 <open_offset>
    8000097c:	0217a797          	auipc	a5,0x217a
    80000980:	70478793          	addi	a5,a5,1796 # 8217b080 <file_table+0x10>
    80000984:	0217b617          	auipc	a2,0x217b
    80000988:	30460613          	addi	a2,a2,772 # 8217bc88 <lut>
    8000098c:	0007b683          	ld	a3,0(a5)
    80000990:	02878793          	addi	a5,a5,40
    80000994:	00870713          	addi	a4,a4,8
    80000998:	fed73c23          	sd	a3,-8(a4)
    8000099c:	fec798e3          	bne	a5,a2,8000098c <init_fs+0x28>
    800009a0:	00008067          	ret

00000000800009a4 <fs_open>:
    800009a4:	fd010113          	addi	sp,sp,-48
    800009a8:	01413023          	sd	s4,0(sp)
    800009ac:	0217aa17          	auipc	s4,0x217a
    800009b0:	6c4a0a13          	addi	s4,s4,1732 # 8217b070 <file_table>
    800009b4:	02813023          	sd	s0,32(sp)
    800009b8:	00913c23          	sd	s1,24(sp)
    800009bc:	01213823          	sd	s2,16(sp)
    800009c0:	01313423          	sd	s3,8(sp)
    800009c4:	02113423          	sd	ra,40(sp)
    800009c8:	00050913          	mv	s2,a0
    800009cc:	000a0493          	mv	s1,s4
    800009d0:	00000413          	li	s0,0
    800009d4:	04d00993          	li	s3,77
    800009d8:	0100006f          	j	800009e8 <fs_open+0x44>
    800009dc:	0014041b          	addiw	s0,s0,1
    800009e0:	02848493          	addi	s1,s1,40
    800009e4:	07340063          	beq	s0,s3,80000a44 <fs_open+0xa0>
    800009e8:	0004b583          	ld	a1,0(s1)
    800009ec:	00090513          	mv	a0,s2
    800009f0:	0ad000ef          	jal	ra,8000129c <strcmp>
    800009f4:	fe0514e3          	bnez	a0,800009dc <fs_open+0x38>
    800009f8:	00241793          	slli	a5,s0,0x2
    800009fc:	008787b3          	add	a5,a5,s0
    80000a00:	00379793          	slli	a5,a5,0x3
    80000a04:	00fa0a33          	add	s4,s4,a5
    80000a08:	010a3703          	ld	a4,16(s4)
    80000a0c:	02813083          	ld	ra,40(sp)
    80000a10:	00341693          	slli	a3,s0,0x3
    80000a14:	00040513          	mv	a0,s0
    80000a18:	0218c797          	auipc	a5,0x218c
    80000a1c:	5e878793          	addi	a5,a5,1512 # 8218d000 <open_offset>
    80000a20:	02013403          	ld	s0,32(sp)
    80000a24:	00d787b3          	add	a5,a5,a3
    80000a28:	00e7b023          	sd	a4,0(a5)
    80000a2c:	01813483          	ld	s1,24(sp)
    80000a30:	01013903          	ld	s2,16(sp)
    80000a34:	00813983          	ld	s3,8(sp)
    80000a38:	00013a03          	ld	s4,0(sp)
    80000a3c:	03010113          	addi	sp,sp,48
    80000a40:	00008067          	ret
    80000a44:	00002717          	auipc	a4,0x2
    80000a48:	9f470713          	addi	a4,a4,-1548 # 80002438 <logo+0x6cf>
    80000a4c:	00003697          	auipc	a3,0x3
    80000a50:	a1468693          	addi	a3,a3,-1516 # 80003460 <__func__.1>
    80000a54:	04500613          	li	a2,69
    80000a58:	00002597          	auipc	a1,0x2
    80000a5c:	f5058593          	addi	a1,a1,-176 # 800029a8 <__func__.2+0x10>
    80000a60:	00002517          	auipc	a0,0x2
    80000a64:	ca850513          	addi	a0,a0,-856 # 80002708 <__func__.0+0xc8>
    80000a68:	505000ef          	jal	ra,8000176c <printf>
    80000a6c:	00100513          	li	a0,1
    80000a70:	2c4000ef          	jal	ra,80000d34 <halt>

0000000080000a74 <fs_read>:
    80000a74:	00251793          	slli	a5,a0,0x2
    80000a78:	fe010113          	addi	sp,sp,-32
    80000a7c:	00a787b3          	add	a5,a5,a0
    80000a80:	00379793          	slli	a5,a5,0x3
    80000a84:	00813823          	sd	s0,16(sp)
    80000a88:	0217a417          	auipc	s0,0x217a
    80000a8c:	5e840413          	addi	s0,s0,1512 # 8217b070 <file_table>
    80000a90:	00f40433          	add	s0,s0,a5
    80000a94:	01843703          	ld	a4,24(s0)
    80000a98:	00351793          	slli	a5,a0,0x3
    80000a9c:	00913423          	sd	s1,8(sp)
    80000aa0:	0218c497          	auipc	s1,0x218c
    80000aa4:	56048493          	addi	s1,s1,1376 # 8218d000 <open_offset>
    80000aa8:	00f484b3          	add	s1,s1,a5
    80000aac:	00113c23          	sd	ra,24(sp)
    80000ab0:	01213023          	sd	s2,0(sp)
    80000ab4:	00058513          	mv	a0,a1
    80000ab8:	0004b583          	ld	a1,0(s1)
    80000abc:	00070e63          	beqz	a4,80000ad8 <fs_read+0x64>
    80000ac0:	01013403          	ld	s0,16(sp)
    80000ac4:	01813083          	ld	ra,24(sp)
    80000ac8:	00813483          	ld	s1,8(sp)
    80000acc:	00013903          	ld	s2,0(sp)
    80000ad0:	02010113          	addi	sp,sp,32
    80000ad4:	00070067          	jr	a4
    80000ad8:	00060913          	mv	s2,a2
    80000adc:	cfdff0ef          	jal	ra,800007d8 <ramdisk_read>
    80000ae0:	0004b703          	ld	a4,0(s1)
    80000ae4:	01043783          	ld	a5,16(s0)
    80000ae8:	00843683          	ld	a3,8(s0)
    80000aec:	01270633          	add	a2,a4,s2
    80000af0:	40f605b3          	sub	a1,a2,a5
    80000af4:	02b6e063          	bltu	a3,a1,80000b14 <fs_read+0xa0>
    80000af8:	00c4b023          	sd	a2,0(s1)
    80000afc:	01813083          	ld	ra,24(sp)
    80000b00:	01013403          	ld	s0,16(sp)
    80000b04:	00813483          	ld	s1,8(sp)
    80000b08:	00013903          	ld	s2,0(sp)
    80000b0c:	02010113          	addi	sp,sp,32
    80000b10:	00008067          	ret
    80000b14:	00d787b3          	add	a5,a5,a3
    80000b18:	40e78533          	sub	a0,a5,a4
    80000b1c:	00f4b023          	sd	a5,0(s1)
    80000b20:	fddff06f          	j	80000afc <fs_read+0x88>

0000000080000b24 <fs_write>:
    80000b24:	00251793          	slli	a5,a0,0x2
    80000b28:	fe010113          	addi	sp,sp,-32
    80000b2c:	00a787b3          	add	a5,a5,a0
    80000b30:	00379793          	slli	a5,a5,0x3
    80000b34:	00813823          	sd	s0,16(sp)
    80000b38:	0217a417          	auipc	s0,0x217a
    80000b3c:	53840413          	addi	s0,s0,1336 # 8217b070 <file_table>
    80000b40:	00f40433          	add	s0,s0,a5
    80000b44:	02043703          	ld	a4,32(s0)
    80000b48:	00351793          	slli	a5,a0,0x3
    80000b4c:	00913423          	sd	s1,8(sp)
    80000b50:	0218c497          	auipc	s1,0x218c
    80000b54:	4b048493          	addi	s1,s1,1200 # 8218d000 <open_offset>
    80000b58:	00f484b3          	add	s1,s1,a5
    80000b5c:	00113c23          	sd	ra,24(sp)
    80000b60:	01213023          	sd	s2,0(sp)
    80000b64:	00058513          	mv	a0,a1
    80000b68:	0004b583          	ld	a1,0(s1)
    80000b6c:	00070e63          	beqz	a4,80000b88 <fs_write+0x64>
    80000b70:	01013403          	ld	s0,16(sp)
    80000b74:	01813083          	ld	ra,24(sp)
    80000b78:	00813483          	ld	s1,8(sp)
    80000b7c:	00013903          	ld	s2,0(sp)
    80000b80:	02010113          	addi	sp,sp,32
    80000b84:	00070067          	jr	a4
    80000b88:	00060913          	mv	s2,a2
    80000b8c:	cc5ff0ef          	jal	ra,80000850 <ramdisk_write>
    80000b90:	0004b703          	ld	a4,0(s1)
    80000b94:	01043783          	ld	a5,16(s0)
    80000b98:	00843683          	ld	a3,8(s0)
    80000b9c:	01270633          	add	a2,a4,s2
    80000ba0:	40f605b3          	sub	a1,a2,a5
    80000ba4:	02b6e063          	bltu	a3,a1,80000bc4 <fs_write+0xa0>
    80000ba8:	00c4b023          	sd	a2,0(s1)
    80000bac:	01813083          	ld	ra,24(sp)
    80000bb0:	01013403          	ld	s0,16(sp)
    80000bb4:	00813483          	ld	s1,8(sp)
    80000bb8:	00013903          	ld	s2,0(sp)
    80000bbc:	02010113          	addi	sp,sp,32
    80000bc0:	00008067          	ret
    80000bc4:	00d787b3          	add	a5,a5,a3
    80000bc8:	40e78533          	sub	a0,a5,a4
    80000bcc:	00f4b023          	sd	a5,0(s1)
    80000bd0:	fddff06f          	j	80000bac <fs_write+0x88>

0000000080000bd4 <fs_lseek>:
    80000bd4:	00100793          	li	a5,1
    80000bd8:	04f60463          	beq	a2,a5,80000c20 <fs_lseek+0x4c>
    80000bdc:	00200793          	li	a5,2
    80000be0:	0af60e63          	beq	a2,a5,80000c9c <fs_lseek+0xc8>
    80000be4:	06060e63          	beqz	a2,80000c60 <fs_lseek+0x8c>
    80000be8:	ff010113          	addi	sp,sp,-16
    80000bec:	00002717          	auipc	a4,0x2
    80000bf0:	84c70713          	addi	a4,a4,-1972 # 80002438 <logo+0x6cf>
    80000bf4:	00002697          	auipc	a3,0x2
    80000bf8:	61c68693          	addi	a3,a3,1564 # 80003210 <__func__.0>
    80000bfc:	08900613          	li	a2,137
    80000c00:	00002597          	auipc	a1,0x2
    80000c04:	da858593          	addi	a1,a1,-600 # 800029a8 <__func__.2+0x10>
    80000c08:	00002517          	auipc	a0,0x2
    80000c0c:	b0050513          	addi	a0,a0,-1280 # 80002708 <__func__.0+0xc8>
    80000c10:	00113423          	sd	ra,8(sp)
    80000c14:	359000ef          	jal	ra,8000176c <printf>
    80000c18:	00100513          	li	a0,1
    80000c1c:	118000ef          	jal	ra,80000d34 <halt>
    80000c20:	00351793          	slli	a5,a0,0x3
    80000c24:	0218c697          	auipc	a3,0x218c
    80000c28:	3dc68693          	addi	a3,a3,988 # 8218d000 <open_offset>
    80000c2c:	00f686b3          	add	a3,a3,a5
    80000c30:	00251793          	slli	a5,a0,0x2
    80000c34:	00a787b3          	add	a5,a5,a0
    80000c38:	0217a717          	auipc	a4,0x217a
    80000c3c:	43870713          	addi	a4,a4,1080 # 8217b070 <file_table>
    80000c40:	00379793          	slli	a5,a5,0x3
    80000c44:	0006b583          	ld	a1,0(a3)
    80000c48:	00f707b3          	add	a5,a4,a5
    80000c4c:	0107b703          	ld	a4,16(a5)
    80000c50:	00159513          	slli	a0,a1,0x1
    80000c54:	00a6b023          	sd	a0,0(a3)
    80000c58:	40e50533          	sub	a0,a0,a4
    80000c5c:	00008067          	ret
    80000c60:	00251793          	slli	a5,a0,0x2
    80000c64:	00a787b3          	add	a5,a5,a0
    80000c68:	0217a717          	auipc	a4,0x217a
    80000c6c:	40870713          	addi	a4,a4,1032 # 8217b070 <file_table>
    80000c70:	00379793          	slli	a5,a5,0x3
    80000c74:	00f707b3          	add	a5,a4,a5
    80000c78:	0107b703          	ld	a4,16(a5)
    80000c7c:	0218c697          	auipc	a3,0x218c
    80000c80:	38468693          	addi	a3,a3,900 # 8218d000 <open_offset>
    80000c84:	00351793          	slli	a5,a0,0x3
    80000c88:	00f687b3          	add	a5,a3,a5
    80000c8c:	00b70533          	add	a0,a4,a1
    80000c90:	00a7b023          	sd	a0,0(a5)
    80000c94:	40e50533          	sub	a0,a0,a4
    80000c98:	00008067          	ret
    80000c9c:	00251793          	slli	a5,a0,0x2
    80000ca0:	00a787b3          	add	a5,a5,a0
    80000ca4:	0217a717          	auipc	a4,0x217a
    80000ca8:	3cc70713          	addi	a4,a4,972 # 8217b070 <file_table>
    80000cac:	00379793          	slli	a5,a5,0x3
    80000cb0:	00f707b3          	add	a5,a4,a5
    80000cb4:	0107b703          	ld	a4,16(a5)
    80000cb8:	0087b683          	ld	a3,8(a5)
    80000cbc:	00351793          	slli	a5,a0,0x3
    80000cc0:	00d706b3          	add	a3,a4,a3
    80000cc4:	00b68533          	add	a0,a3,a1
    80000cc8:	0218c697          	auipc	a3,0x218c
    80000ccc:	33868693          	addi	a3,a3,824 # 8218d000 <open_offset>
    80000cd0:	00f687b3          	add	a5,a3,a5
    80000cd4:	00a7b023          	sd	a0,0(a5)
    80000cd8:	40e50533          	sub	a0,a0,a4
    80000cdc:	00008067          	ret

0000000080000ce0 <fs_close>:
    80000ce0:	00000513          	li	a0,0
    80000ce4:	00008067          	ret

0000000080000ce8 <init_mm>:
    80000ce8:	00001737          	lui	a4,0x1
    80000cec:	fff70713          	addi	a4,a4,-1 # fff <_entry_offset+0xfff>
    80000cf0:	0217b797          	auipc	a5,0x217b
    80000cf4:	f887b783          	ld	a5,-120(a5) # 8217bc78 <heap>
    80000cf8:	00e787b3          	add	a5,a5,a4
    80000cfc:	fffff737          	lui	a4,0xfffff
    80000d00:	00e7f733          	and	a4,a5,a4
    80000d04:	00002697          	auipc	a3,0x2
    80000d08:	75468693          	addi	a3,a3,1876 # 80003458 <__func__.0>
    80000d0c:	01a00613          	li	a2,26
    80000d10:	00002597          	auipc	a1,0x2
    80000d14:	53058593          	addi	a1,a1,1328 # 80003240 <__func__.3+0x10>
    80000d18:	00002517          	auipc	a0,0x2
    80000d1c:	59850513          	addi	a0,a0,1432 # 800032b0 <__func__.3+0x80>
    80000d20:	24d0006f          	j	8000176c <printf>

0000000080000d24 <putch>:
    80000d24:	00500793          	li	a5,5
    80000d28:	01d79793          	slli	a5,a5,0x1d
    80000d2c:	3ea78c23          	sb	a0,1016(a5)
    80000d30:	00008067          	ret

0000000080000d34 <halt>:
    80000d34:	00050513          	mv	a0,a0
    80000d38:	00100073          	ebreak
    80000d3c:	0000006f          	j	80000d3c <halt+0x8>

0000000080000d40 <_trm_init>:
    80000d40:	ff010113          	addi	sp,sp,-16
    80000d44:	00002517          	auipc	a0,0x2
    80000d48:	72450513          	addi	a0,a0,1828 # 80003468 <mainargs>
    80000d4c:	00113423          	sd	ra,8(sp)
    80000d50:	ac0ff0ef          	jal	ra,80000010 <main>
    80000d54:	00050513          	mv	a0,a0
    80000d58:	00100073          	ebreak
    80000d5c:	0000006f          	j	80000d5c <_trm_init+0x1c>

0000000080000d60 <__am_uart_config>:
    80000d60:	00050023          	sb	zero,0(a0)
    80000d64:	00008067          	ret

0000000080000d68 <__am_timer_config>:
    80000d68:	00100793          	li	a5,1
    80000d6c:	00f50023          	sb	a5,0(a0)
    80000d70:	00f500a3          	sb	a5,1(a0)
    80000d74:	00008067          	ret

0000000080000d78 <__am_input_config>:
    80000d78:	00100793          	li	a5,1
    80000d7c:	00f50023          	sb	a5,0(a0)
    80000d80:	00008067          	ret

0000000080000d84 <fail>:
    80000d84:	ff010113          	addi	sp,sp,-16
    80000d88:	00813023          	sd	s0,0(sp)
    80000d8c:	00113423          	sd	ra,8(sp)
    80000d90:	00002417          	auipc	s0,0x2
    80000d94:	56040413          	addi	s0,s0,1376 # 800032f0 <__func__.3+0xc0>
    80000d98:	04100513          	li	a0,65
    80000d9c:	00140413          	addi	s0,s0,1
    80000da0:	f85ff0ef          	jal	ra,80000d24 <putch>
    80000da4:	00044503          	lbu	a0,0(s0)
    80000da8:	fe051ae3          	bnez	a0,80000d9c <fail+0x18>
    80000dac:	00002417          	auipc	s0,0x2
    80000db0:	55440413          	addi	s0,s0,1364 # 80003300 <__func__.3+0xd0>
    80000db4:	06100513          	li	a0,97
    80000db8:	00140413          	addi	s0,s0,1
    80000dbc:	f69ff0ef          	jal	ra,80000d24 <putch>
    80000dc0:	00044503          	lbu	a0,0(s0)
    80000dc4:	fe051ae3          	bnez	a0,80000db8 <fail+0x34>
    80000dc8:	00002417          	auipc	s0,0x2
    80000dcc:	55840413          	addi	s0,s0,1368 # 80003320 <__func__.3+0xf0>
    80000dd0:	02000513          	li	a0,32
    80000dd4:	00140413          	addi	s0,s0,1
    80000dd8:	f4dff0ef          	jal	ra,80000d24 <putch>
    80000ddc:	00044503          	lbu	a0,0(s0)
    80000de0:	fe051ae3          	bnez	a0,80000dd4 <fail+0x50>
    80000de4:	00100513          	li	a0,1
    80000de8:	f4dff0ef          	jal	ra,80000d34 <halt>

0000000080000dec <ioe_init>:
    80000dec:	ff010113          	addi	sp,sp,-16
    80000df0:	00113423          	sd	ra,8(sp)
    80000df4:	0217b797          	auipc	a5,0x217b
    80000df8:	e9478793          	addi	a5,a5,-364 # 8217bc88 <lut>
    80000dfc:	0217b697          	auipc	a3,0x217b
    80000e00:	28c68693          	addi	a3,a3,652 # 8217c088 <lut+0x400>
    80000e04:	00000617          	auipc	a2,0x0
    80000e08:	f8060613          	addi	a2,a2,-128 # 80000d84 <fail>
    80000e0c:	00c0006f          	j	80000e18 <ioe_init+0x2c>
    80000e10:	00878793          	addi	a5,a5,8
    80000e14:	00d78c63          	beq	a5,a3,80000e2c <ioe_init+0x40>
    80000e18:	0007b703          	ld	a4,0(a5)
    80000e1c:	fe071ae3          	bnez	a4,80000e10 <ioe_init+0x24>
    80000e20:	00c7b023          	sd	a2,0(a5)
    80000e24:	00878793          	addi	a5,a5,8
    80000e28:	fed798e3          	bne	a5,a3,80000e18 <ioe_init+0x2c>
    80000e2c:	300000ef          	jal	ra,8000112c <__am_gpu_init>
    80000e30:	04c000ef          	jal	ra,80000e7c <__am_timer_init>
    80000e34:	00813083          	ld	ra,8(sp)
    80000e38:	00100513          	li	a0,1
    80000e3c:	01010113          	addi	sp,sp,16
    80000e40:	00008067          	ret

0000000080000e44 <ioe_read>:
    80000e44:	00351513          	slli	a0,a0,0x3
    80000e48:	0217b797          	auipc	a5,0x217b
    80000e4c:	e4078793          	addi	a5,a5,-448 # 8217bc88 <lut>
    80000e50:	00a787b3          	add	a5,a5,a0
    80000e54:	0007b783          	ld	a5,0(a5)
    80000e58:	00058513          	mv	a0,a1
    80000e5c:	00078067          	jr	a5

0000000080000e60 <ioe_write>:
    80000e60:	00351513          	slli	a0,a0,0x3
    80000e64:	0217b797          	auipc	a5,0x217b
    80000e68:	e2478793          	addi	a5,a5,-476 # 8217bc88 <lut>
    80000e6c:	00a787b3          	add	a5,a5,a0
    80000e70:	0007b783          	ld	a5,0(a5)
    80000e74:	00058513          	mv	a0,a1
    80000e78:	00078067          	jr	a5

0000000080000e7c <__am_timer_init>:
    80000e7c:	00008067          	ret

0000000080000e80 <__am_timer_uptime>:
    80000e80:	00500713          	li	a4,5
    80000e84:	01d71713          	slli	a4,a4,0x1d
    80000e88:	04c72783          	lw	a5,76(a4) # fffffffffffff04c <_end+0xffffffff7dc6904c>
    80000e8c:	04872703          	lw	a4,72(a4)
    80000e90:	02079793          	slli	a5,a5,0x20
    80000e94:	02071713          	slli	a4,a4,0x20
    80000e98:	02075713          	srli	a4,a4,0x20
    80000e9c:	00e787b3          	add	a5,a5,a4
    80000ea0:	00f53023          	sd	a5,0(a0)
    80000ea4:	00008067          	ret

0000000080000ea8 <__am_timer_rtc>:
    80000ea8:	76c00793          	li	a5,1900
    80000eac:	00052a23          	sw	zero,20(a0)
    80000eb0:	00052823          	sw	zero,16(a0)
    80000eb4:	00052623          	sw	zero,12(a0)
    80000eb8:	00052423          	sw	zero,8(a0)
    80000ebc:	00052223          	sw	zero,4(a0)
    80000ec0:	00f52023          	sw	a5,0(a0)
    80000ec4:	00008067          	ret

0000000080000ec8 <__am_input_keybrd>:
    80000ec8:	00500793          	li	a5,5
    80000ecc:	01d79793          	slli	a5,a5,0x1d
    80000ed0:	0607a783          	lw	a5,96(a5)
    80000ed4:	40f7d71b          	sraiw	a4,a5,0xf
    80000ed8:	00177713          	andi	a4,a4,1
    80000edc:	0ff7f793          	zext.b	a5,a5
    80000ee0:	00e50023          	sb	a4,0(a0)
    80000ee4:	00f52223          	sw	a5,4(a0)
    80000ee8:	00008067          	ret

0000000080000eec <__am_irq_handle>:
    80000eec:	0238c797          	auipc	a5,0x238c
    80000ef0:	3847b783          	ld	a5,900(a5) # 8238d270 <user_handler>
    80000ef4:	00050593          	mv	a1,a0
    80000ef8:	08078a63          	beqz	a5,80000f8c <__am_irq_handle+0xa0>
    80000efc:	10053683          	ld	a3,256(a0)
    80000f00:	fb010113          	addi	sp,sp,-80
    80000f04:	04113423          	sd	ra,72(sp)
    80000f08:	02013023          	sd	zero,32(sp)
    80000f0c:	02013423          	sd	zero,40(sp)
    80000f10:	02013823          	sd	zero,48(sp)
    80000f14:	02013c23          	sd	zero,56(sp)
    80000f18:	00b00713          	li	a4,11
    80000f1c:	04e68263          	beq	a3,a4,80000f60 <__am_irq_handle+0x74>
    80000f20:	00400713          	li	a4,4
    80000f24:	02e12023          	sw	a4,32(sp)
    80000f28:	02013703          	ld	a4,32(sp)
    80000f2c:	00010513          	mv	a0,sp
    80000f30:	00e13023          	sd	a4,0(sp)
    80000f34:	02813703          	ld	a4,40(sp)
    80000f38:	00e13423          	sd	a4,8(sp)
    80000f3c:	03013703          	ld	a4,48(sp)
    80000f40:	00e13823          	sd	a4,16(sp)
    80000f44:	03813703          	ld	a4,56(sp)
    80000f48:	00e13c23          	sd	a4,24(sp)
    80000f4c:	000780e7          	jalr	a5
    80000f50:	04050c63          	beqz	a0,80000fa8 <__am_irq_handle+0xbc>
    80000f54:	04813083          	ld	ra,72(sp)
    80000f58:	05010113          	addi	sp,sp,80
    80000f5c:	00008067          	ret
    80000f60:	08853703          	ld	a4,136(a0)
    80000f64:	01300693          	li	a3,19
    80000f68:	02e6f463          	bgeu	a3,a4,80000f90 <__am_irq_handle+0xa4>
    80000f6c:	fff00693          	li	a3,-1
    80000f70:	fad718e3          	bne	a4,a3,80000f20 <__am_irq_handle+0x34>
    80000f74:	11053703          	ld	a4,272(a0)
    80000f78:	00100693          	li	a3,1
    80000f7c:	02d12023          	sw	a3,32(sp)
    80000f80:	00470713          	addi	a4,a4,4
    80000f84:	10e53823          	sd	a4,272(a0)
    80000f88:	fa1ff06f          	j	80000f28 <__am_irq_handle+0x3c>
    80000f8c:	00008067          	ret
    80000f90:	11053703          	ld	a4,272(a0)
    80000f94:	00200693          	li	a3,2
    80000f98:	02d12023          	sw	a3,32(sp)
    80000f9c:	00470713          	addi	a4,a4,4
    80000fa0:	10e53823          	sd	a4,272(a0)
    80000fa4:	f85ff06f          	j	80000f28 <__am_irq_handle+0x3c>
    80000fa8:	02200613          	li	a2,34
    80000fac:	00002597          	auipc	a1,0x2
    80000fb0:	3c458593          	addi	a1,a1,964 # 80003370 <__func__.3+0x140>
    80000fb4:	00002517          	auipc	a0,0x2
    80000fb8:	40450513          	addi	a0,a0,1028 # 800033b8 <__func__.3+0x188>
    80000fbc:	7b0000ef          	jal	ra,8000176c <printf>
    80000fc0:	00100513          	li	a0,1
    80000fc4:	d71ff0ef          	jal	ra,80000d34 <halt>

0000000080000fc8 <cte_init>:
    80000fc8:	00050793          	mv	a5,a0
    80000fcc:	00000717          	auipc	a4,0x0
    80000fd0:	02870713          	addi	a4,a4,40 # 80000ff4 <__am_asm_trap>
    80000fd4:	30571073          	csrw	mtvec,a4
    80000fd8:	00100513          	li	a0,1
    80000fdc:	0238c717          	auipc	a4,0x238c
    80000fe0:	28f73a23          	sd	a5,660(a4) # 8238d270 <user_handler>
    80000fe4:	00008067          	ret

0000000080000fe8 <yield>:
    80000fe8:	fff00893          	li	a7,-1
    80000fec:	00000073          	ecall
    80000ff0:	00008067          	ret

0000000080000ff4 <__am_asm_trap>:
    80000ff4:	ee810113          	addi	sp,sp,-280
    80000ff8:	00113423          	sd	ra,8(sp)
    80000ffc:	00313c23          	sd	gp,24(sp)
    80001000:	02413023          	sd	tp,32(sp)
    80001004:	02513423          	sd	t0,40(sp)
    80001008:	02613823          	sd	t1,48(sp)
    8000100c:	02713c23          	sd	t2,56(sp)
    80001010:	04813023          	sd	s0,64(sp)
    80001014:	04913423          	sd	s1,72(sp)
    80001018:	04a13823          	sd	a0,80(sp)
    8000101c:	04b13c23          	sd	a1,88(sp)
    80001020:	06c13023          	sd	a2,96(sp)
    80001024:	06d13423          	sd	a3,104(sp)
    80001028:	06e13823          	sd	a4,112(sp)
    8000102c:	06f13c23          	sd	a5,120(sp)
    80001030:	09013023          	sd	a6,128(sp)
    80001034:	09113423          	sd	a7,136(sp)
    80001038:	09213823          	sd	s2,144(sp)
    8000103c:	09313c23          	sd	s3,152(sp)
    80001040:	0b413023          	sd	s4,160(sp)
    80001044:	0b513423          	sd	s5,168(sp)
    80001048:	0b613823          	sd	s6,176(sp)
    8000104c:	0b713c23          	sd	s7,184(sp)
    80001050:	0d813023          	sd	s8,192(sp)
    80001054:	0d913423          	sd	s9,200(sp)
    80001058:	0da13823          	sd	s10,208(sp)
    8000105c:	0db13c23          	sd	s11,216(sp)
    80001060:	0fc13023          	sd	t3,224(sp)
    80001064:	0fd13423          	sd	t4,232(sp)
    80001068:	0fe13823          	sd	t5,240(sp)
    8000106c:	0ff13c23          	sd	t6,248(sp)
    80001070:	00010293          	mv	t0,sp
    80001074:	11828293          	addi	t0,t0,280
    80001078:	00513823          	sd	t0,16(sp)
    8000107c:	342022f3          	csrr	t0,mcause
    80001080:	30002373          	csrr	t1,mstatus
    80001084:	341023f3          	csrr	t2,mepc
    80001088:	10513023          	sd	t0,256(sp)
    8000108c:	10613423          	sd	t1,264(sp)
    80001090:	10713823          	sd	t2,272(sp)
    80001094:	00010513          	mv	a0,sp
    80001098:	e55ff0ef          	jal	ra,80000eec <__am_irq_handle>
    8000109c:	10813303          	ld	t1,264(sp)
    800010a0:	11013383          	ld	t2,272(sp)
    800010a4:	30031073          	csrw	mstatus,t1
    800010a8:	34139073          	csrw	mepc,t2
    800010ac:	00813083          	ld	ra,8(sp)
    800010b0:	01813183          	ld	gp,24(sp)
    800010b4:	02013203          	ld	tp,32(sp)
    800010b8:	02813283          	ld	t0,40(sp)
    800010bc:	03013303          	ld	t1,48(sp)
    800010c0:	03813383          	ld	t2,56(sp)
    800010c4:	04013403          	ld	s0,64(sp)
    800010c8:	04813483          	ld	s1,72(sp)
    800010cc:	05013503          	ld	a0,80(sp)
    800010d0:	05813583          	ld	a1,88(sp)
    800010d4:	06013603          	ld	a2,96(sp)
    800010d8:	06813683          	ld	a3,104(sp)
    800010dc:	07013703          	ld	a4,112(sp)
    800010e0:	07813783          	ld	a5,120(sp)
    800010e4:	08013803          	ld	a6,128(sp)
    800010e8:	08813883          	ld	a7,136(sp)
    800010ec:	09013903          	ld	s2,144(sp)
    800010f0:	09813983          	ld	s3,152(sp)
    800010f4:	0a013a03          	ld	s4,160(sp)
    800010f8:	0a813a83          	ld	s5,168(sp)
    800010fc:	0b013b03          	ld	s6,176(sp)
    80001100:	0b813b83          	ld	s7,184(sp)
    80001104:	0c013c03          	ld	s8,192(sp)
    80001108:	0c813c83          	ld	s9,200(sp)
    8000110c:	0d013d03          	ld	s10,208(sp)
    80001110:	0d813d83          	ld	s11,216(sp)
    80001114:	0e013e03          	ld	t3,224(sp)
    80001118:	0e813e83          	ld	t4,232(sp)
    8000111c:	0f013f03          	ld	t5,240(sp)
    80001120:	0f813f83          	ld	t6,248(sp)
    80001124:	11810113          	addi	sp,sp,280
    80001128:	30200073          	mret

000000008000112c <__am_gpu_init>:
    8000112c:	00008067          	ret

0000000080001130 <__am_gpu_config>:
    80001130:	00500793          	li	a5,5
    80001134:	01d79793          	slli	a5,a5,0x1d
    80001138:	1007a783          	lw	a5,256(a5)
    8000113c:	00100613          	li	a2,1
    80001140:	00c51023          	sh	a2,0(a0)
    80001144:	03079693          	slli	a3,a5,0x30
    80001148:	0306d693          	srli	a3,a3,0x30
    8000114c:	4107d79b          	sraiw	a5,a5,0x10
    80001150:	02f6873b          	mulw	a4,a3,a5
    80001154:	00f52223          	sw	a5,4(a0)
    80001158:	00d52423          	sw	a3,8(a0)
    8000115c:	0057179b          	slliw	a5,a4,0x5
    80001160:	00f52623          	sw	a5,12(a0)
    80001164:	00008067          	ret

0000000080001168 <__am_gpu_fbdraw>:
    80001168:	fe010113          	addi	sp,sp,-32
    8000116c:	00813823          	sd	s0,16(sp)
    80001170:	00010593          	mv	a1,sp
    80001174:	00050413          	mv	s0,a0
    80001178:	00900513          	li	a0,9
    8000117c:	00113c23          	sd	ra,24(sp)
    80001180:	cc5ff0ef          	jal	ra,80000e44 <ioe_read>
    80001184:	01442783          	lw	a5,20(s0)
    80001188:	00412883          	lw	a7,4(sp)
    8000118c:	00843803          	ld	a6,8(s0)
    80001190:	06f05663          	blez	a5,800011fc <__am_gpu_fbdraw+0x94>
    80001194:	01042703          	lw	a4,16(s0)
    80001198:	0a100513          	li	a0,161
    8000119c:	00000613          	li	a2,0
    800011a0:	01851513          	slli	a0,a0,0x18
    800011a4:	00000693          	li	a3,0
    800011a8:	04e05663          	blez	a4,800011f4 <__am_gpu_fbdraw+0x8c>
    800011ac:	00442783          	lw	a5,4(s0)
    800011b0:	02c7073b          	mulw	a4,a4,a2
    800011b4:	00042583          	lw	a1,0(s0)
    800011b8:	00c787bb          	addw	a5,a5,a2
    800011bc:	031787bb          	mulw	a5,a5,a7
    800011c0:	00d7073b          	addw	a4,a4,a3
    800011c4:	00271713          	slli	a4,a4,0x2
    800011c8:	00e80733          	add	a4,a6,a4
    800011cc:	00072703          	lw	a4,0(a4)
    800011d0:	00d787bb          	addw	a5,a5,a3
    800011d4:	00b787bb          	addw	a5,a5,a1
    800011d8:	00279793          	slli	a5,a5,0x2
    800011dc:	00f507b3          	add	a5,a0,a5
    800011e0:	00e7a023          	sw	a4,0(a5)
    800011e4:	01042703          	lw	a4,16(s0)
    800011e8:	0016869b          	addiw	a3,a3,1
    800011ec:	fce6c0e3          	blt	a3,a4,800011ac <__am_gpu_fbdraw+0x44>
    800011f0:	01442783          	lw	a5,20(s0)
    800011f4:	0016061b          	addiw	a2,a2,1
    800011f8:	faf646e3          	blt	a2,a5,800011a4 <__am_gpu_fbdraw+0x3c>
    800011fc:	01844783          	lbu	a5,24(s0)
    80001200:	00078a63          	beqz	a5,80001214 <__am_gpu_fbdraw+0xac>
    80001204:	00500793          	li	a5,5
    80001208:	01d79793          	slli	a5,a5,0x1d
    8000120c:	00100713          	li	a4,1
    80001210:	10e7a223          	sw	a4,260(a5)
    80001214:	01813083          	ld	ra,24(sp)
    80001218:	01013403          	ld	s0,16(sp)
    8000121c:	02010113          	addi	sp,sp,32
    80001220:	00008067          	ret

0000000080001224 <__am_gpu_status>:
    80001224:	00100793          	li	a5,1
    80001228:	00f50023          	sb	a5,0(a0)
    8000122c:	00008067          	ret

0000000080001230 <strlen>:
    80001230:	00054703          	lbu	a4,0(a0)
    80001234:	00150793          	addi	a5,a0,1
    80001238:	02070063          	beqz	a4,80001258 <strlen+0x28>
    8000123c:	00100693          	li	a3,1
    80001240:	40f686bb          	subw	a3,a3,a5
    80001244:	0007c703          	lbu	a4,0(a5)
    80001248:	00f6853b          	addw	a0,a3,a5
    8000124c:	00178793          	addi	a5,a5,1
    80001250:	fe071ae3          	bnez	a4,80001244 <strlen+0x14>
    80001254:	00008067          	ret
    80001258:	00000513          	li	a0,0
    8000125c:	00008067          	ret

0000000080001260 <strcpy>:
    80001260:	0005c703          	lbu	a4,0(a1)
    80001264:	02070663          	beqz	a4,80001290 <strcpy+0x30>
    80001268:	00000793          	li	a5,0
    8000126c:	00f506b3          	add	a3,a0,a5
    80001270:	00178793          	addi	a5,a5,1
    80001274:	00e68023          	sb	a4,0(a3)
    80001278:	00f58733          	add	a4,a1,a5
    8000127c:	00074703          	lbu	a4,0(a4)
    80001280:	fe0716e3          	bnez	a4,8000126c <strcpy+0xc>
    80001284:	00f507b3          	add	a5,a0,a5
    80001288:	00078023          	sb	zero,0(a5)
    8000128c:	00008067          	ret
    80001290:	00050793          	mv	a5,a0
    80001294:	00078023          	sb	zero,0(a5)
    80001298:	00008067          	ret

000000008000129c <strcmp>:
    8000129c:	04050263          	beqz	a0,800012e0 <strcmp+0x44>
    800012a0:	00059c63          	bnez	a1,800012b8 <strcmp+0x1c>
    800012a4:	03c0006f          	j	800012e0 <strcmp+0x44>
    800012a8:	0005c703          	lbu	a4,0(a1)
    800012ac:	00150513          	addi	a0,a0,1
    800012b0:	00158593          	addi	a1,a1,1
    800012b4:	02f71063          	bne	a4,a5,800012d4 <strcmp+0x38>
    800012b8:	00054783          	lbu	a5,0(a0)
    800012bc:	fe0796e3          	bnez	a5,800012a8 <strcmp+0xc>
    800012c0:	0005c703          	lbu	a4,0(a1)
    800012c4:	00000793          	li	a5,0
    800012c8:	00e7b7b3          	sltu	a5,a5,a4
    800012cc:	40f0053b          	negw	a0,a5
    800012d0:	00008067          	ret
    800012d4:	00100513          	li	a0,1
    800012d8:	fef778e3          	bgeu	a4,a5,800012c8 <strcmp+0x2c>
    800012dc:	00008067          	ret
    800012e0:	ffe00513          	li	a0,-2
    800012e4:	00008067          	ret

00000000800012e8 <strrev>:
    800012e8:	06050063          	beqz	a0,80001348 <strrev+0x60>
    800012ec:	00054683          	lbu	a3,0(a0)
    800012f0:	00150713          	addi	a4,a0,1
    800012f4:	00100593          	li	a1,1
    800012f8:	40e585bb          	subw	a1,a1,a4
    800012fc:	fff00793          	li	a5,-1
    80001300:	00068c63          	beqz	a3,80001318 <strrev+0x30>
    80001304:	00074603          	lbu	a2,0(a4)
    80001308:	00e587bb          	addw	a5,a1,a4
    8000130c:	00170713          	addi	a4,a4,1
    80001310:	fe061ae3          	bnez	a2,80001304 <strrev+0x1c>
    80001314:	fff78793          	addi	a5,a5,-1
    80001318:	00f507b3          	add	a5,a0,a5
    8000131c:	02f57463          	bgeu	a0,a5,80001344 <strrev+0x5c>
    80001320:	00050713          	mv	a4,a0
    80001324:	0080006f          	j	8000132c <strrev+0x44>
    80001328:	00074683          	lbu	a3,0(a4)
    8000132c:	0007c603          	lbu	a2,0(a5)
    80001330:	fff78793          	addi	a5,a5,-1
    80001334:	00170713          	addi	a4,a4,1
    80001338:	fec70fa3          	sb	a2,-1(a4)
    8000133c:	00d780a3          	sb	a3,1(a5)
    80001340:	fef764e3          	bltu	a4,a5,80001328 <strrev+0x40>
    80001344:	00008067          	ret
    80001348:	ff010113          	addi	sp,sp,-16
    8000134c:	04900613          	li	a2,73
    80001350:	00002597          	auipc	a1,0x2
    80001354:	08858593          	addi	a1,a1,136 # 800033d8 <__func__.3+0x1a8>
    80001358:	00002517          	auipc	a0,0x2
    8000135c:	06050513          	addi	a0,a0,96 # 800033b8 <__func__.3+0x188>
    80001360:	00113423          	sd	ra,8(sp)
    80001364:	408000ef          	jal	ra,8000176c <printf>
    80001368:	00100513          	li	a0,1
    8000136c:	9c9ff0ef          	jal	ra,80000d34 <halt>

0000000080001370 <memset>:
    80001370:	0ff5f593          	zext.b	a1,a1
    80001374:	00050793          	mv	a5,a0
    80001378:	00a60733          	add	a4,a2,a0
    8000137c:	00060863          	beqz	a2,8000138c <memset+0x1c>
    80001380:	00b78023          	sb	a1,0(a5)
    80001384:	00178793          	addi	a5,a5,1
    80001388:	fee79ce3          	bne	a5,a4,80001380 <memset+0x10>
    8000138c:	00008067          	ret

0000000080001390 <memcpy>:
    80001390:	02060063          	beqz	a2,800013b0 <memcpy+0x20>
    80001394:	00050793          	mv	a5,a0
    80001398:	00c58633          	add	a2,a1,a2
    8000139c:	0005c703          	lbu	a4,0(a1)
    800013a0:	00158593          	addi	a1,a1,1
    800013a4:	00178793          	addi	a5,a5,1
    800013a8:	fee78fa3          	sb	a4,-1(a5)
    800013ac:	fec598e3          	bne	a1,a2,8000139c <memcpy+0xc>
    800013b0:	00008067          	ret

00000000800013b4 <malloc>:
    800013b4:	0238c797          	auipc	a5,0x238c
    800013b8:	ec478793          	addi	a5,a5,-316 # 8238d278 <first>
    800013bc:	0007a683          	lw	a3,0(a5)
    800013c0:	00750713          	addi	a4,a0,7
    800013c4:	ff877713          	andi	a4,a4,-8
    800013c8:	04069263          	bnez	a3,8000140c <malloc+0x58>
    800013cc:	0217b517          	auipc	a0,0x217b
    800013d0:	8ac53503          	ld	a0,-1876(a0) # 8217bc78 <heap>
    800013d4:	00750513          	addi	a0,a0,7
    800013d8:	ff857513          	andi	a0,a0,-8
    800013dc:	0238c697          	auipc	a3,0x238c
    800013e0:	ea468693          	addi	a3,a3,-348 # 8238d280 <hbrk>
    800013e4:	00e50733          	add	a4,a0,a4
    800013e8:	00100613          	li	a2,1
    800013ec:	00c7a023          	sw	a2,0(a5)
    800013f0:	00e6b023          	sd	a4,0(a3)
    800013f4:	00a70a63          	beq	a4,a0,80001408 <malloc+0x54>
    800013f8:	00050793          	mv	a5,a0
    800013fc:	0007b023          	sd	zero,0(a5)
    80001400:	00878793          	addi	a5,a5,8
    80001404:	fef71ce3          	bne	a4,a5,800013fc <malloc+0x48>
    80001408:	00008067          	ret
    8000140c:	0238c697          	auipc	a3,0x238c
    80001410:	e7468693          	addi	a3,a3,-396 # 8238d280 <hbrk>
    80001414:	0006b503          	ld	a0,0(a3)
    80001418:	fcdff06f          	j	800013e4 <malloc+0x30>

000000008000141c <my_itoa>:
    8000141c:	00050793          	mv	a5,a0
    80001420:	80000737          	lui	a4,0x80000
    80001424:	00058513          	mv	a0,a1
    80001428:	06e78663          	beq	a5,a4,80001494 <my_itoa+0x78>
    8000142c:	0007ce63          	bltz	a5,80001448 <my_itoa+0x2c>
    80001430:	04079e63          	bnez	a5,8000148c <my_itoa+0x70>
    80001434:	03000793          	li	a5,48
    80001438:	00158813          	addi	a6,a1,1
    8000143c:	00f58023          	sb	a5,0(a1)
    80001440:	00080023          	sb	zero,0(a6)
    80001444:	ea5ff06f          	j	800012e8 <strrev>
    80001448:	40f007bb          	negw	a5,a5
    8000144c:	00100593          	li	a1,1
    80001450:	00050713          	mv	a4,a0
    80001454:	00a00613          	li	a2,10
    80001458:	02c7e6bb          	remw	a3,a5,a2
    8000145c:	00070813          	mv	a6,a4
    80001460:	00170713          	addi	a4,a4,1 # ffffffff80000001 <_end+0xfffffffefdc6a001>
    80001464:	02c7c7bb          	divw	a5,a5,a2
    80001468:	0306869b          	addiw	a3,a3,48
    8000146c:	fed70fa3          	sb	a3,-1(a4)
    80001470:	fe0794e3          	bnez	a5,80001458 <my_itoa+0x3c>
    80001474:	02058663          	beqz	a1,800014a0 <my_itoa+0x84>
    80001478:	02d00793          	li	a5,45
    8000147c:	00280813          	addi	a6,a6,2
    80001480:	00f70023          	sb	a5,0(a4)
    80001484:	00080023          	sb	zero,0(a6)
    80001488:	e61ff06f          	j	800012e8 <strrev>
    8000148c:	00000593          	li	a1,0
    80001490:	fc1ff06f          	j	80001450 <my_itoa+0x34>
    80001494:	00002597          	auipc	a1,0x2
    80001498:	fa458593          	addi	a1,a1,-92 # 80003438 <__func__.3+0x208>
    8000149c:	dc5ff06f          	j	80001260 <strcpy>
    800014a0:	00070813          	mv	a6,a4
    800014a4:	f9dff06f          	j	80001440 <my_itoa+0x24>

00000000800014a8 <my_itoa2>:
    800014a8:	00050793          	mv	a5,a0
    800014ac:	80000737          	lui	a4,0x80000
    800014b0:	00058513          	mv	a0,a1
    800014b4:	08e78c63          	beq	a5,a4,8000154c <my_itoa2+0xa4>
    800014b8:	0007ce63          	bltz	a5,800014d4 <my_itoa2+0x2c>
    800014bc:	08079463          	bnez	a5,80001544 <my_itoa2+0x9c>
    800014c0:	03000793          	li	a5,48
    800014c4:	00158693          	addi	a3,a1,1
    800014c8:	00f58023          	sb	a5,0(a1)
    800014cc:	00068023          	sb	zero,0(a3)
    800014d0:	e19ff06f          	j	800012e8 <strrev>
    800014d4:	40f007b3          	neg	a5,a5
    800014d8:	00100e93          	li	t4,1
    800014dc:	00050693          	mv	a3,a0
    800014e0:	00900e13          	li	t3,9
    800014e4:	00600593          	li	a1,6
    800014e8:	0180006f          	j	80001500 <my_itoa2+0x58>
    800014ec:	00668023          	sb	t1,0(a3)
    800014f0:	02c7c7b3          	div	a5,a5,a2
    800014f4:	00168713          	addi	a4,a3,1
    800014f8:	02078a63          	beqz	a5,8000152c <my_itoa2+0x84>
    800014fc:	00070693          	mv	a3,a4
    80001500:	02c7e733          	rem	a4,a5,a2
    80001504:	0007081b          	sext.w	a6,a4
    80001508:	0307031b          	addiw	t1,a4,48 # ffffffff80000030 <_end+0xfffffffefdc6a030>
    8000150c:	ff68089b          	addiw	a7,a6,-10
    80001510:	fd0e7ee3          	bgeu	t3,a6,800014ec <my_itoa2+0x44>
    80001514:	0577071b          	addiw	a4,a4,87
    80001518:	fd15ece3          	bltu	a1,a7,800014f0 <my_itoa2+0x48>
    8000151c:	02c7c7b3          	div	a5,a5,a2
    80001520:	00e68023          	sb	a4,0(a3)
    80001524:	00168713          	addi	a4,a3,1
    80001528:	fc079ae3          	bnez	a5,800014fc <my_itoa2+0x54>
    8000152c:	020e8663          	beqz	t4,80001558 <my_itoa2+0xb0>
    80001530:	02d00793          	li	a5,45
    80001534:	00268693          	addi	a3,a3,2
    80001538:	00f70023          	sb	a5,0(a4)
    8000153c:	00068023          	sb	zero,0(a3)
    80001540:	da9ff06f          	j	800012e8 <strrev>
    80001544:	00000e93          	li	t4,0
    80001548:	f95ff06f          	j	800014dc <my_itoa2+0x34>
    8000154c:	00002597          	auipc	a1,0x2
    80001550:	eec58593          	addi	a1,a1,-276 # 80003438 <__func__.3+0x208>
    80001554:	d0dff06f          	j	80001260 <strcpy>
    80001558:	00070693          	mv	a3,a4
    8000155c:	f71ff06f          	j	800014cc <my_itoa2+0x24>

0000000080001560 <vsprintf>:
    80001560:	f7010113          	addi	sp,sp,-144
    80001564:	07213823          	sd	s2,112(sp)
    80001568:	05813023          	sd	s8,64(sp)
    8000156c:	08113423          	sd	ra,136(sp)
    80001570:	08813023          	sd	s0,128(sp)
    80001574:	06913c23          	sd	s1,120(sp)
    80001578:	07313423          	sd	s3,104(sp)
    8000157c:	07413023          	sd	s4,96(sp)
    80001580:	05513c23          	sd	s5,88(sp)
    80001584:	05613823          	sd	s6,80(sp)
    80001588:	05713423          	sd	s7,72(sp)
    8000158c:	03913c23          	sd	s9,56(sp)
    80001590:	03a13823          	sd	s10,48(sp)
    80001594:	03b13423          	sd	s11,40(sp)
    80001598:	00050c13          	mv	s8,a0
    8000159c:	00000913          	li	s2,0
    800015a0:	1c058263          	beqz	a1,80001764 <vsprintf+0x204>
    800015a4:	00058993          	mv	s3,a1
    800015a8:	00000413          	li	s0,0
    800015ac:	008987b3          	add	a5,s3,s0
    800015b0:	0007c783          	lbu	a5,0(a5)
    800015b4:	00050493          	mv	s1,a0
    800015b8:	00060a13          	mv	s4,a2
    800015bc:	02500c93          	li	s9,37
    800015c0:	06c00d13          	li	s10,108
    800015c4:	06400d93          	li	s11,100
    800015c8:	07300b13          	li	s6,115
    800015cc:	06300b93          	li	s7,99
    800015d0:	00048713          	mv	a4,s1
    800015d4:	02078463          	beqz	a5,800015fc <vsprintf+0x9c>
    800015d8:	07978463          	beq	a5,s9,80001640 <vsprintf+0xe0>
    800015dc:	0019091b          	addiw	s2,s2,1
    800015e0:	00f48023          	sb	a5,0(s1)
    800015e4:	0014041b          	addiw	s0,s0,1
    800015e8:	012c04b3          	add	s1,s8,s2
    800015ec:	008987b3          	add	a5,s3,s0
    800015f0:	0007c783          	lbu	a5,0(a5)
    800015f4:	00048713          	mv	a4,s1
    800015f8:	fe0790e3          	bnez	a5,800015d8 <vsprintf+0x78>
    800015fc:	00070023          	sb	zero,0(a4)
    80001600:	08813083          	ld	ra,136(sp)
    80001604:	08013403          	ld	s0,128(sp)
    80001608:	07813483          	ld	s1,120(sp)
    8000160c:	06813983          	ld	s3,104(sp)
    80001610:	06013a03          	ld	s4,96(sp)
    80001614:	05813a83          	ld	s5,88(sp)
    80001618:	05013b03          	ld	s6,80(sp)
    8000161c:	04813b83          	ld	s7,72(sp)
    80001620:	04013c03          	ld	s8,64(sp)
    80001624:	03813c83          	ld	s9,56(sp)
    80001628:	03013d03          	ld	s10,48(sp)
    8000162c:	02813d83          	ld	s11,40(sp)
    80001630:	00090513          	mv	a0,s2
    80001634:	07013903          	ld	s2,112(sp)
    80001638:	09010113          	addi	sp,sp,144
    8000163c:	00008067          	ret
    80001640:	00140a9b          	addiw	s5,s0,1
    80001644:	015987b3          	add	a5,s3,s5
    80001648:	0007c783          	lbu	a5,0(a5)
    8000164c:	09a78463          	beq	a5,s10,800016d4 <vsprintf+0x174>
    80001650:	04fd6263          	bltu	s10,a5,80001694 <vsprintf+0x134>
    80001654:	0d778863          	beq	a5,s7,80001724 <vsprintf+0x1c4>
    80001658:	07b79863          	bne	a5,s11,800016c8 <vsprintf+0x168>
    8000165c:	000a2503          	lw	a0,0(s4)
    80001660:	00810593          	addi	a1,sp,8
    80001664:	000a8413          	mv	s0,s5
    80001668:	db5ff0ef          	jal	ra,8000141c <my_itoa>
    8000166c:	00810593          	addi	a1,sp,8
    80001670:	00048513          	mv	a0,s1
    80001674:	bedff0ef          	jal	ra,80001260 <strcpy>
    80001678:	00810513          	addi	a0,sp,8
    8000167c:	bb5ff0ef          	jal	ra,80001230 <strlen>
    80001680:	0125093b          	addw	s2,a0,s2
    80001684:	008a0a13          	addi	s4,s4,8
    80001688:	012c04b3          	add	s1,s8,s2
    8000168c:	0014041b          	addiw	s0,s0,1
    80001690:	f5dff06f          	j	800015ec <vsprintf+0x8c>
    80001694:	03679a63          	bne	a5,s6,800016c8 <vsprintf+0x168>
    80001698:	000a3403          	ld	s0,0(s4)
    8000169c:	00048513          	mv	a0,s1
    800016a0:	008a0a13          	addi	s4,s4,8
    800016a4:	00040593          	mv	a1,s0
    800016a8:	bb9ff0ef          	jal	ra,80001260 <strcpy>
    800016ac:	00040513          	mv	a0,s0
    800016b0:	b81ff0ef          	jal	ra,80001230 <strlen>
    800016b4:	0125093b          	addw	s2,a0,s2
    800016b8:	000a8413          	mv	s0,s5
    800016bc:	012c04b3          	add	s1,s8,s2
    800016c0:	0014041b          	addiw	s0,s0,1
    800016c4:	f29ff06f          	j	800015ec <vsprintf+0x8c>
    800016c8:	000a8413          	mv	s0,s5
    800016cc:	0014041b          	addiw	s0,s0,1
    800016d0:	f1dff06f          	j	800015ec <vsprintf+0x8c>
    800016d4:	0024041b          	addiw	s0,s0,2
    800016d8:	008987b3          	add	a5,s3,s0
    800016dc:	0007c783          	lbu	a5,0(a5)
    800016e0:	07b78c63          	beq	a5,s11,80001758 <vsprintf+0x1f8>
    800016e4:	07800713          	li	a4,120
    800016e8:	04e79e63          	bne	a5,a4,80001744 <vsprintf+0x1e4>
    800016ec:	000a3503          	ld	a0,0(s4)
    800016f0:	01000613          	li	a2,16
    800016f4:	00810593          	addi	a1,sp,8
    800016f8:	db1ff0ef          	jal	ra,800014a8 <my_itoa2>
    800016fc:	00810593          	addi	a1,sp,8
    80001700:	00048513          	mv	a0,s1
    80001704:	b5dff0ef          	jal	ra,80001260 <strcpy>
    80001708:	00810513          	addi	a0,sp,8
    8000170c:	b25ff0ef          	jal	ra,80001230 <strlen>
    80001710:	0125093b          	addw	s2,a0,s2
    80001714:	008a0a13          	addi	s4,s4,8
    80001718:	012c04b3          	add	s1,s8,s2
    8000171c:	0014041b          	addiw	s0,s0,1
    80001720:	ecdff06f          	j	800015ec <vsprintf+0x8c>
    80001724:	000a2783          	lw	a5,0(s4)
    80001728:	0019091b          	addiw	s2,s2,1
    8000172c:	000a8413          	mv	s0,s5
    80001730:	00f48023          	sb	a5,0(s1)
    80001734:	008a0a13          	addi	s4,s4,8
    80001738:	012c04b3          	add	s1,s8,s2
    8000173c:	0014041b          	addiw	s0,s0,1
    80001740:	eadff06f          	j	800015ec <vsprintf+0x8c>
    80001744:	00002517          	auipc	a0,0x2
    80001748:	cd450513          	addi	a0,a0,-812 # 80003418 <__func__.3+0x1e8>
    8000174c:	020000ef          	jal	ra,8000176c <printf>
    80001750:	0014041b          	addiw	s0,s0,1
    80001754:	e99ff06f          	j	800015ec <vsprintf+0x8c>
    80001758:	000a3503          	ld	a0,0(s4)
    8000175c:	00a00613          	li	a2,10
    80001760:	f95ff06f          	j	800016f4 <vsprintf+0x194>
    80001764:	00050713          	mv	a4,a0
    80001768:	e95ff06f          	j	800015fc <vsprintf+0x9c>

000000008000176c <printf>:
    8000176c:	f9010113          	addi	sp,sp,-112
    80001770:	03810313          	addi	t1,sp,56
    80001774:	02b13c23          	sd	a1,56(sp)
    80001778:	04c13023          	sd	a2,64(sp)
    8000177c:	00050593          	mv	a1,a0
    80001780:	00030613          	mv	a2,t1
    80001784:	0218c517          	auipc	a0,0x218c
    80001788:	ae450513          	addi	a0,a0,-1308 # 8218d268 <print_buf>
    8000178c:	00913c23          	sd	s1,24(sp)
    80001790:	01213823          	sd	s2,16(sp)
    80001794:	02113423          	sd	ra,40(sp)
    80001798:	02813023          	sd	s0,32(sp)
    8000179c:	04d13423          	sd	a3,72(sp)
    800017a0:	04e13823          	sd	a4,80(sp)
    800017a4:	04f13c23          	sd	a5,88(sp)
    800017a8:	07013023          	sd	a6,96(sp)
    800017ac:	07113423          	sd	a7,104(sp)
    800017b0:	00613423          	sd	t1,8(sp)
    800017b4:	dadff0ef          	jal	ra,80001560 <vsprintf>
    800017b8:	0005049b          	sext.w	s1,a0
    800017bc:	00050913          	mv	s2,a0
    800017c0:	02048a63          	beqz	s1,800017f4 <printf+0x88>
    800017c4:	fff4849b          	addiw	s1,s1,-1
    800017c8:	02049493          	slli	s1,s1,0x20
    800017cc:	0204d493          	srli	s1,s1,0x20
    800017d0:	0218c797          	auipc	a5,0x218c
    800017d4:	a9978793          	addi	a5,a5,-1383 # 8218d269 <print_buf+0x1>
    800017d8:	0218c417          	auipc	s0,0x218c
    800017dc:	a9040413          	addi	s0,s0,-1392 # 8218d268 <print_buf>
    800017e0:	00f484b3          	add	s1,s1,a5
    800017e4:	00044503          	lbu	a0,0(s0)
    800017e8:	00140413          	addi	s0,s0,1
    800017ec:	d38ff0ef          	jal	ra,80000d24 <putch>
    800017f0:	fe941ae3          	bne	s0,s1,800017e4 <printf+0x78>
    800017f4:	02813083          	ld	ra,40(sp)
    800017f8:	02013403          	ld	s0,32(sp)
    800017fc:	01813483          	ld	s1,24(sp)
    80001800:	00090513          	mv	a0,s2
    80001804:	01013903          	ld	s2,16(sp)
    80001808:	07010113          	addi	sp,sp,112
    8000180c:	00008067          	ret

0000000080001810 <sprintf>:
    80001810:	fb010113          	addi	sp,sp,-80
    80001814:	02010313          	addi	t1,sp,32
    80001818:	02c13023          	sd	a2,32(sp)
    8000181c:	00030613          	mv	a2,t1
    80001820:	00113c23          	sd	ra,24(sp)
    80001824:	02d13423          	sd	a3,40(sp)
    80001828:	02e13823          	sd	a4,48(sp)
    8000182c:	02f13c23          	sd	a5,56(sp)
    80001830:	05013023          	sd	a6,64(sp)
    80001834:	05113423          	sd	a7,72(sp)
    80001838:	00613423          	sd	t1,8(sp)
    8000183c:	d25ff0ef          	jal	ra,80001560 <vsprintf>
    80001840:	01813083          	ld	ra,24(sp)
    80001844:	05010113          	addi	sp,sp,80
    80001848:	00008067          	ret
